target datalayout = "e-m:e-p270:32:32-p271:32:32-p272:64:64-i64:64-i128:128-f80:128-n8:16:32:64-S128"
target triple = "x86_64-pc-linux-gnu"

@.str.129 = private unnamed_addr constant [7 x i8] c"LC_ALL\00", align 1
@.str.130 = private unnamed_addr constant [2 x i8] c"C\00", align 1

; Function Attrs: nounwind uwtable
define hidden i32 @_Py_LegacyLocaleDetected(i32 noundef %0) #1 {
  %2 = alloca i32, align 4
  %3 = alloca i32, align 4
  %4 = alloca ptr, align 8
  %5 = alloca i32, align 4
  %6 = alloca ptr, align 8
  store i32 %0, ptr %3, align 4, !tbaa !4
  %7 = load i32, ptr %3, align 4, !tbaa !4
  %8 = icmp ne i32 %7, 0
  br i1 %8, label %23, label %9

9:                                                ; preds = %1
  call void @llvm.lifetime.start.p0(i64 8, ptr %4) #14
  %10 = call ptr @getenv(ptr noundef @.str.129) #14
  store ptr %10, ptr %4, align 8, !tbaa !180
  %11 = load ptr, ptr %4, align 8, !tbaa !180
  %12 = icmp ne ptr %11, null
  br i1 %12, label %13, label %19

13:                                               ; preds = %9
  %14 = load ptr, ptr %4, align 8, !tbaa !180
  %15 = load i8, ptr %14, align 1, !tbaa !181
  %16 = sext i8 %15 to i32
  %17 = icmp ne i32 %16, 0
  br i1 %17, label %18, label %19

18:                                               ; preds = %13
  store i32 0, ptr %2, align 4
  store i32 1, ptr %5, align 4
  br label %20

19:                                               ; preds = %13, %9
  store i32 0, ptr %5, align 4
  br label %20

20:                                               ; preds = %19, %18
  call void @llvm.lifetime.end.p0(i64 8, ptr %4) #14
  %21 = load i32, ptr %5, align 4
  switch i32 %21, label %36 [
    i32 0, label %22
    i32 1, label %34
  ]

22:                                               ; preds = %20
  br label %23

23:                                               ; preds = %22, %1
  call void @llvm.lifetime.start.p0(i64 8, ptr %6) #14
  %24 = call ptr @setlocale(i32 noundef 0, ptr noundef null) #14
  store ptr %24, ptr %6, align 8, !tbaa !180
  %25 = load ptr, ptr %6, align 8, !tbaa !180
  %26 = icmp ne ptr %25, null
  br i1 %26, label %27, label %31

27:                                               ; preds = %23
  %28 = load ptr, ptr %6, align 8, !tbaa !180
  %29 = call i32 @strcmp(ptr noundef %28, ptr noundef @.str.130) #15
  %30 = icmp eq i32 %29, 0
  br label %31

31:                                               ; preds = %27, %23
  %32 = phi i1 [ false, %23 ], [ %30, %27 ]
  %33 = zext i1 %32 to i32
  store i32 %33, ptr %2, align 4
  store i32 1, ptr %5, align 4
  call void @llvm.lifetime.end.p0(i64 8, ptr %6) #14
  br label %34

34:                                               ; preds = %31, %20
  %35 = load i32, ptr %2, align 4
  ret i32 %35

36:                                               ; preds = %20
  unreachable
}