; Function Attrs: nounwind uwtable
define hidden range(i32 0, 2) i32 @_Py_LegacyLocaleDetected(i32 noundef %0) local_unnamed_addr #1 {
  %.not = icmp eq i32 %0, 0
  br i1 %.not, label %2, label %.thread

2:                                                ; preds = %1
  %3 = tail call ptr @getenv(ptr noundef nonnull @.str.129) #23
  %.not8 = icmp eq ptr %3, null
  br i1 %.not8, label %.thread, label %4

4:                                                ; preds = %2
  %5 = load i8, ptr %3, align 1, !tbaa !176
  %.not9 = icmp eq i8 %5, 0
  br i1 %.not9, label %.thread, label %.tail

.thread:                                          ; preds = %4, %2, %1
  %6 = tail call ptr @setlocale(i32 noundef 0, ptr noundef null) #23
  %.not10 = icmp eq ptr %6, null
  br i1 %.not10, label %.tail, label %sub_0

sub_0:                                            ; preds = %.thread
  %7 = load i8, ptr %6, align 1
  %.not13 = icmp eq i8 %7, 67
  br i1 %.not13, label %sub_1, label %.tail

sub_1:                                            ; preds = %sub_0
  %8 = getelementptr inbounds nuw i8, ptr %6, i64 1
  %9 = load i8, ptr %8, align 1
  %10 = icmp eq i8 %9, 0
  %11 = zext i1 %10 to i32
  br label %.tail

.tail:                                            ; preds = %sub_1, %sub_0, %4, %.thread
  %.1 = phi i32 [ 0, %.thread ], [ 0, %4 ], [ 0, %sub_0 ], [ %11, %sub_1 ]
  ret i32 %.1
}